; Function Attrs: nounwind uwtable
define internal fastcc range(i32 2, 6) i32 @exec_command_z(ptr noundef %0, i1 noundef zeroext %1, ptr noundef readonly %2) unnamed_addr #0 {
  br i1 %1, label %4, label %14

4:                                                ; preds = %3
  %5 = tail call ptr @psql_scan_slash_option(ptr noundef %0, i32 noundef 0, ptr noundef null, i1 noundef zeroext true) #16
  %6 = tail call ptr @strchr(ptr noundef nonnull dereferenceable(1) %2, i32 noundef 83) #17
  %7 = icmp ne ptr %6, null
  %8 = load i16, ptr getelementptr inbounds nuw (i8, ptr @pset, i64 52), align 4
  %9 = tail call ptr @strchr(ptr noundef nonnull dereferenceable(1) %2, i32 noundef 120) #17
  %.not = icmp eq ptr %9, null
  br i1 %.not, label %11, label %10

10:                                               ; preds = %4
  store i16 1, ptr getelementptr inbounds nuw (i8, ptr @pset, i64 52), align 4
  br label %11

11:                                               ; preds = %10, %4
  %12 = tail call zeroext i1 @permissionsList(ptr noundef %5, i1 noundef zeroext %7) #16
  store i16 %8, ptr getelementptr inbounds nuw (i8, ptr @pset, i64 52), align 4
  tail call void @free(ptr noundef %5) #16
  %13 = select i1 %12, i32 2, i32 5
  br label %ignore_slash_options.exit

14:                                               ; preds = %3
  %15 = tail call ptr @psql_scan_slash_option(ptr noundef %0, i32 noundef 0, ptr noundef null, i1 noundef zeroext false) #16
  %.not2.i = icmp eq ptr %15, null
  br i1 %.not2.i, label %ignore_slash_options.exit, label %.lr.ph.i

.lr.ph.i:                                         ; preds = %14, %.lr.ph.i
  %16 = phi ptr [ %17, %.lr.ph.i ], [ %15, %14 ]
  tail call void @free(ptr noundef nonnull %16) #16
  %17 = tail call ptr @psql_scan_slash_option(ptr noundef %0, i32 noundef 0, ptr noundef null, i1 noundef zeroext false) #16
  %.not.i = icmp eq ptr %17, null
  br i1 %.not.i, label %ignore_slash_options.exit, label %.lr.ph.i, !llvm.loop !10

ignore_slash_options.exit:                        ; preds = %.lr.ph.i, %14, %11
  %.0 = phi i32 [ %13, %11 ], [ 2, %14 ], [ 2, %.lr.ph.i ]
  ret i32 %.0
}